target datalayout = "e-m:e-p270:32:32-p271:32:32-p272:64:64-i64:64-i128:128-f80:128-n8:16:32:64-S128"
target triple = "x86_64-pc-linux-gnu"

; Function Attrs: mustprogress nounwind uwtable
define hidden noundef i32 @_ZN5zxing6common11StringUtils13is_ascii_codeEPci(ptr noundef %0, i32 noundef %1) #2 align 2 {
  %3 = alloca ptr, align 8
  %4 = alloca i32, align 4
  %5 = alloca i8, align 1
  %6 = alloca i8, align 1
  %7 = alloca i32, align 4
  store ptr %0, ptr %3, align 8, !tbaa !3
  store i32 %1, ptr %4, align 4, !tbaa !8
  call void @llvm.lifetime.start.p0(i64 1, ptr %5) #14
  store i8 0, ptr %5, align 1, !tbaa !13
  call void @llvm.lifetime.start.p0(i64 1, ptr %6) #14
  store i8 1, ptr %6, align 1, !tbaa !25
  call void @llvm.lifetime.start.p0(i64 4, ptr %7) #14
  store i32 0, ptr %7, align 4, !tbaa !8
  br label %8

8:                                                ; preds = %24, %2
  %9 = load i32, ptr %7, align 4, !tbaa !8
  %10 = load i32, ptr %4, align 4, !tbaa !8
  %11 = icmp slt i32 %9, %10
  br i1 %11, label %13, label %12

12:                                               ; preds = %8
  call void @llvm.lifetime.end.p0(i64 4, ptr %7) #14
  br label %27

13:                                               ; preds = %8
  %14 = load ptr, ptr %3, align 8, !tbaa !3
  %15 = load i32, ptr %7, align 4, !tbaa !8
  %16 = sext i32 %15 to i64
  %17 = getelementptr inbounds i8, ptr %14, i64 %16
  %18 = load i8, ptr %17, align 1, !tbaa !13
  store i8 %18, ptr %5, align 1, !tbaa !13
  %19 = load i8, ptr %5, align 1, !tbaa !13
  %20 = zext i8 %19 to i32
  %21 = icmp sgt i32 %20, 127
  br i1 %21, label %22, label %23

22:                                               ; preds = %13
  store i8 0, ptr %6, align 1, !tbaa !25
  br label %23

23:                                               ; preds = %22, %13
  br label %24

24:                                               ; preds = %23
  %25 = load i32, ptr %7, align 4, !tbaa !8
  %26 = add nsw i32 %25, 1
  store i32 %26, ptr %7, align 4, !tbaa !8
  br label %8, !llvm.loop !34

27:                                               ; preds = %12
  %28 = load i8, ptr %6, align 1, !tbaa !25, !range !27, !noundef !28
  %29 = trunc i8 %28 to i1
  %30 = select i1 %29, i32 1, i32 -1
  call void @llvm.lifetime.end.p0(i64 1, ptr %6) #14
  call void @llvm.lifetime.end.p0(i64 1, ptr %5) #14
  ret i32 %30
}