; Function Attrs: mustprogress nofree norecurse nosync nounwind willreturn memory(argmem: read) uwtable
define hidden noundef range(i32 -1, 2) i32 @_ZN5zxing6common11StringUtils13is_ascii_codeEPci(ptr noundef readonly captures(none) %0, i32 noundef %1) local_unnamed_addr #6 align 2 {
  %3 = icmp sgt i32 %1, 0
  br i1 %3, label %.lr.ph.preheader, label %._crit_edge

.lr.ph.preheader:                                 ; preds = %2
  %wide.trip.count = zext nneg i32 %1 to i64
  br label %.lr.ph

._crit_edge.loopexit:                             ; preds = %.lr.ph
  %4 = select i1 %spec.select, i32 1, i32 -1
  br label %._crit_edge

._crit_edge:                                      ; preds = %._crit_edge.loopexit, %2
  %.06.lcssa = phi i32 [ 1, %2 ], [ %4, %._crit_edge.loopexit ]
  ret i32 %.06.lcssa

.lr.ph:                                           ; preds = %.lr.ph.preheader, %.lr.ph
  %indvars.iv = phi i64 [ 0, %.lr.ph.preheader ], [ %indvars.iv.next, %.lr.ph ]
  %.067 = phi i1 [ true, %.lr.ph.preheader ], [ %spec.select, %.lr.ph ]
  %5 = getelementptr inbounds nuw i8, ptr %0, i64 %indvars.iv
  %6 = load i8, ptr %5, align 1, !tbaa !12
  %7 = icmp sgt i8 %6, -1
  %spec.select = select i1 %7, i1 %.067, i1 false
  %indvars.iv.next = add nuw nsw i64 %indvars.iv, 1
  %exitcond.not = icmp eq i64 %indvars.iv.next, %wide.trip.count
  br i1 %exitcond.not, label %._crit_edge.loopexit, label %.lr.ph, !llvm.loop !20
}